; Function Attrs: mustprogress nofree norecurse nosync nounwind memory(read, argmem: readwrite, inaccessiblemem: none) uwtable
define void @_ZN17IOPluginContainer21IOPluginRangeIterator5beginEv(ptr dead_on_unwind noalias writable writeonly sret(%class.ConstPluginIterator) align 8 captures(none) initializes((0, 17)) %0, ptr noundef nonnull readonly align 8 captures(none) dereferenceable(9) %1) local_unnamed_addr #13 align 2 {
  %3 = load ptr, ptr %1, align 8
  %4 = load ptr, ptr %3, align 8
  %5 = getelementptr inbounds nuw i8, ptr %1, i64 8
  %6 = load i8, ptr %5, align 8
  %7 = trunc i8 %6 to i1
  %8 = and i8 %6, 1
  store ptr %3, ptr %0, align 8
  %9 = getelementptr inbounds nuw i8, ptr %0, i64 8
  %10 = ptrtoint ptr %4 to i64
  store i64 %10, ptr %9, align 8
  %11 = getelementptr inbounds nuw i8, ptr %0, i64 16
  store i8 %8, ptr %11, align 8
  %12 = getelementptr inbounds nuw i8, ptr %3, i64 8
  %13 = load ptr, ptr %12, align 8
  %.not5.i = icmp eq ptr %13, %4
  %brmerge.i = or i1 %.not5.i, %7
  br i1 %brmerge.i, label %_ZN19ConstPluginIteratorI8IOPluginEC2ERKSt6vectorIPS0_SaIS3_EERKN9__gnu_cxx17__normal_iteratorIPKS3_S5_EEb.exit, label %14

14:                                               ; preds = %2
  %15 = load ptr, ptr %4, align 8
  %16 = load ptr, ptr %15, align 8
  %17 = getelementptr i8, ptr %16, i64 -24
  %18 = load i64, ptr %17, align 8
  %19 = getelementptr inbounds i8, ptr %15, i64 %18
  %20 = getelementptr inbounds nuw i8, ptr %19, i64 8
  %21 = load i8, ptr %20, align 8
  %22 = trunc i8 %21 to i1
  br i1 %22, label %_ZN19ConstPluginIteratorI8IOPluginEC2ERKSt6vectorIPS0_SaIS3_EERKN9__gnu_cxx17__normal_iteratorIPKS3_S5_EEb.exit, label %.preheader.i.i

.preheader.i.i:                                   ; preds = %14, %25
  %23 = phi ptr [ %24, %25 ], [ %4, %14 ]
  %24 = getelementptr inbounds nuw i8, ptr %23, i64 8
  %.not.i.i = icmp eq ptr %24, %13
  br i1 %.not.i.i, label %_ZN19ConstPluginIteratorI8IOPluginEC2ERKSt6vectorIPS0_SaIS3_EERKN9__gnu_cxx17__normal_iteratorIPKS3_S5_EEb.exit.loopexit, label %25

25:                                               ; preds = %.preheader.i.i
  %26 = load ptr, ptr %24, align 8
  %27 = load ptr, ptr %26, align 8
  %28 = getelementptr i8, ptr %27, i64 -24
  %29 = load i64, ptr %28, align 8
  %30 = getelementptr inbounds i8, ptr %26, i64 %29
  %31 = getelementptr inbounds nuw i8, ptr %30, i64 8
  %32 = load i8, ptr %31, align 8
  %33 = trunc i8 %32 to i1
  br i1 %33, label %_ZN19ConstPluginIteratorI8IOPluginEC2ERKSt6vectorIPS0_SaIS3_EERKN9__gnu_cxx17__normal_iteratorIPKS3_S5_EEb.exit.loopexit, label %.preheader.i.i, !llvm.loop !67

_ZN19ConstPluginIteratorI8IOPluginEC2ERKSt6vectorIPS0_SaIS3_EERKN9__gnu_cxx17__normal_iteratorIPKS3_S5_EEb.exit.loopexit: ; preds = %25, %.preheader.i.i
  store ptr %24, ptr %9, align 8
  br label %_ZN19ConstPluginIteratorI8IOPluginEC2ERKSt6vectorIPS0_SaIS3_EERKN9__gnu_cxx17__normal_iteratorIPKS3_S5_EEb.exit

_ZN19ConstPluginIteratorI8IOPluginEC2ERKSt6vectorIPS0_SaIS3_EERKN9__gnu_cxx17__normal_iteratorIPKS3_S5_EEb.exit: ; preds = %_ZN19ConstPluginIteratorI8IOPluginEC2ERKSt6vectorIPS0_SaIS3_EERKN9__gnu_cxx17__normal_iteratorIPKS3_S5_EEb.exit.loopexit, %2, %14
  ret void
}